
faulty.ko:     file format elf64-x86-64


Disassembly of section .text:

0000000000000000 <faulty_write>:
   0:	e8 00 00 00 00       	callq  5 <faulty_write+0x5>
   5:	55                   	push   %rbp
   6:	48 c7 c7 00 00 00 00 	mov    $0x0,%rdi
   d:	48 89 e5             	mov    %rsp,%rbp
  10:	41 55                	push   %r13
  12:	41 54                	push   %r12
  14:	53                   	push   %rbx
  15:	48 89 d3             	mov    %rdx,%rbx
  18:	49 89 f5             	mov    %rsi,%r13
  1b:	e8 00 00 00 00       	callq  20 <faulty_write+0x20>
  20:	48 89 df             	mov    %rbx,%rdi
  23:	be c0 00 40 01       	mov    $0x14000c0,%esi
  28:	e8 00 00 00 00       	callq  2d <faulty_write+0x2d>
  2d:	48 89 de             	mov    %rbx,%rsi
	return ret;
}

ssize_t faulty_write (struct file *filp, const char __user *buf, size_t count,
		loff_t *pos)
{
  30:	49 89 c4             	mov    %rax,%r12
  33:	48 c7 c7 00 00 00 00 	mov    $0x0,%rdi
    char *d;
    char *m1;
    char *m2;

	/* make a simple fault by dereferencing a NULL pointer */
	printk(KERN_INFO "faulty_write  \n" );
  3a:	e8 00 00 00 00       	callq  3f <faulty_write+0x3f>
	return ret;
}

ssize_t faulty_write (struct file *filp, const char __user *buf, size_t count,
		loff_t *pos)
{
  3f:	48 89 de             	mov    %rbx,%rsi
  42:	4c 89 e7             	mov    %r12,%rdi
  45:	31 d2                	xor    %edx,%edx
  47:	e8 00 00 00 00       	callq  4c <faulty_write+0x4c>
    char *d;
    char *m1;
    char *m2;

	/* make a simple fault by dereferencing a NULL pointer */
	printk(KERN_INFO "faulty_write  \n" );
  4c:	48 89 da             	mov    %rbx,%rdx
  4f:	4c 89 ee             	mov    %r13,%rsi
			return kmem_cache_alloc_trace(kmalloc_caches[index],
					flags, size);
		}
#endif
	}
	return __kmalloc(size, flags);
  52:	4c 89 e7             	mov    %r12,%rdi
  55:	e8 00 00 00 00       	callq  5a <faulty_write+0x5a>
  5a:	48 89 de             	mov    %rbx,%rsi

    d = kmalloc( count , GFP_KERNEL );
	printk(KERN_INFO "faulty_write : allocated %d bytes  and   \n", count );
  5d:	48 c7 c7 00 00 00 00 	mov    $0x0,%rdi
  64:	e8 00 00 00 00       	callq  69 <faulty_write+0x69>
  69:	4c 89 e6             	mov    %r12,%rsi
  6c:	48 c7 c7 00 00 00 00 	mov    $0x0,%rdi

static __always_inline void check_object_size(const void *ptr, unsigned long n,
					      bool to_user)
{
	if (!__builtin_constant_p(n))
		__check_object_size(ptr, n, to_user);
  73:	e8 00 00 00 00       	callq  78 <faulty_write+0x78>
  78:	48 c7 c7 00 00 00 00 	mov    $0x0,%rdi

static __always_inline unsigned long __must_check
copy_from_user(void *to, const void __user *from, unsigned long n)
{
	if (likely(check_copy_size(to, n, false)))
		n = _copy_from_user(to, from, n);
  7f:	e8 00 00 00 00       	callq  84 <faulty_write+0x84>
  84:	48 89 df             	mov    %rbx,%rdi
  87:	be c0 00 40 01       	mov    $0x14000c0,%esi
    copy_from_user( d, buf, count );
	printk(KERN_INFO "faulty_write : copied the bytes %d bytes  \n", count );
  8c:	e8 00 00 00 00       	callq  91 <faulty_write+0x91>
  91:	48 89 de             	mov    %rbx,%rsi
  94:	48 c7 c7 00 00 00 00 	mov    $0x0,%rdi
	printk(KERN_INFO "faulty_write : The string is as In D  :%s   \n",  d );
  9b:	e8 00 00 00 00       	callq  a0 <faulty_write+0xa0>
  a0:	48 89 de             	mov    %rbx,%rsi
  a3:	48 c7 c7 00 00 00 00 	mov    $0x0,%rdi
	printk(KERN_INFO "faulty_write : Now copying through memcpy - kernel to Kernel buffer \n");
  aa:	e8 00 00 00 00       	callq  af <faulty_write+0xaf>
  af:	4c 89 e6             	mov    %r12,%rsi
  b2:	48 c7 c7 00 00 00 00 	mov    $0x0,%rdi
  b9:	e8 00 00 00 00       	callq  be <faulty_write+0xbe>
  be:	48 c7 c7 00 00 00 00 	mov    $0x0,%rdi
    m1 = kmalloc( count , GFP_KERNEL );
	printk(KERN_INFO "faulty_write : allocated %d bytes  for M1   \n", count );
  c5:	e8 00 00 00 00       	callq  ca <faulty_write+0xca>
  ca:	48 89 df             	mov    %rbx,%rdi
  cd:	be c0 00 40 01       	mov    $0x14000c0,%esi
    memcpy(m1, d, count );
	printk(KERN_INFO "faulty_write : copied the bytes %d bytes  \n", count );
  d2:	e8 00 00 00 00       	callq  d7 <faulty_write+0xd7>
  d7:	48 89 de             	mov    %rbx,%rsi
  da:	48 c7 c7 00 00 00 00 	mov    $0x0,%rdi
	printk(KERN_INFO "faulty_write : The string is M1 :%s   \n",  d );
  e1:	e8 00 00 00 00       	callq  e6 <faulty_write+0xe6>
  e6:	48 89 de             	mov    %rbx,%rsi
  e9:	48 c7 c7 00 00 00 00 	mov    $0x0,%rdi
	//*(int *)0 = 0;
	printk(KERN_INFO "faulty_write : Now copying through memcpy - user to Kernel buffer \n");
  f0:	e8 00 00 00 00       	callq  f5 <faulty_write+0xf5>
  f5:	4c 89 e6             	mov    %r12,%rsi
  f8:	48 c7 c7 00 00 00 00 	mov    $0x0,%rdi
  ff:	e8 00 00 00 00       	callq  104 <faulty_write+0x104>
 104:	31 c0                	xor    %eax,%eax
 106:	5b                   	pop    %rbx
    m2 = kmalloc( count , GFP_KERNEL );
	printk(KERN_INFO "faulty_write : allocated %d bytes  for M2   \n", count );
 107:	41 5c                	pop    %r12
 109:	41 5d                	pop    %r13
 10b:	5d                   	pop    %rbp
 10c:	c3                   	retq   
 10d:	0f 1f 00             	nopl   (%rax)

0000000000000110 <faulty_read>:
 110:	e8 00 00 00 00       	callq  115 <faulty_read+0x5>
 115:	55                   	push   %rbp
    memcpy(m2, buf, count );
	printk(KERN_INFO "faulty_write : copied the bytes %d bytes  \n", count );
 116:	48 c7 c7 00 00 00 00 	mov    $0x0,%rdi
 11d:	48 89 e5             	mov    %rsp,%rbp
 120:	41 54                	push   %r12
 122:	53                   	push   %rbx
 123:	48 89 d3             	mov    %rdx,%rbx
	printk(KERN_INFO "faulty_write : The string is M2 :%s   \n",  d );
 126:	49 89 f4             	mov    %rsi,%r12
 129:	48 83 ec 10          	sub    $0x10,%rsp
 12d:	c6 45 e4 52          	movb   $0x52,-0x1c(%rbp)
 131:	c6 45 e5 42          	movb   $0x42,-0x1b(%rbp)
	return 0;
}
 135:	65 48 8b 04 25 28 00 	mov    %gs:0x28,%rax
 13c:	00 00 
 13e:	48 89 45 e8          	mov    %rax,-0x18(%rbp)
int faulty_major = 0;
static struct class *faulty_class = NULL;

ssize_t faulty_read(struct file *filp, char __user *buf,
		    size_t count, loff_t *pos)
{
 142:	31 c0                	xor    %eax,%eax
 144:	c6 45 e6 4d          	movb   $0x4d,-0x1a(%rbp)
	int i;
	int ret;
	char stack_buf[4]={'R','B','M','N'};

	printk(KERN_INFO "faulty_read  \n" );
 148:	c6 45 e7 4e          	movb   $0x4e,-0x19(%rbp)
 14c:	e8 00 00 00 00       	callq  151 <faulty_read+0x41>
int faulty_major = 0;
static struct class *faulty_class = NULL;

ssize_t faulty_read(struct file *filp, char __user *buf,
		    size_t count, loff_t *pos)
{
 151:	48 83 fb 04          	cmp    $0x4,%rbx
 155:	b8 04 00 00 00       	mov    $0x4,%eax
 15a:	48 8d 7d e4          	lea    -0x1c(%rbp),%rdi
	int i;
	int ret;
	char stack_buf[4]={'R','B','M','N'};
 15e:	48 0f 47 d8          	cmova  %rax,%rbx
 162:	ba 01 00 00 00       	mov    $0x1,%edx
int faulty_major = 0;
static struct class *faulty_class = NULL;

ssize_t faulty_read(struct file *filp, char __user *buf,
		    size_t count, loff_t *pos)
{
 167:	48 89 de             	mov    %rbx,%rsi
 16a:	e8 00 00 00 00       	callq  16f <faulty_read+0x5f>
 16f:	48 8d 75 e4          	lea    -0x1c(%rbp),%rsi
 173:	4c 89 e7             	mov    %r12,%rdi
	int i;
	int ret;
	char stack_buf[4]={'R','B','M','N'};
 176:	48 89 da             	mov    %rbx,%rdx
 179:	e8 00 00 00 00       	callq  17e <faulty_read+0x6e>

	printk(KERN_INFO "faulty_read  \n" );
 17e:	48 c7 c7 00 00 00 00 	mov    $0x0,%rdi
 185:	49 89 c4             	mov    %rax,%r12
 188:	89 c6                	mov    %eax,%esi
 18a:	e8 00 00 00 00       	callq  18f <faulty_read+0x7f>
 18f:	45 85 e4             	test   %r12d,%r12d
 192:	49 63 c4             	movslq %r12d,%rax
 195:	48 0f 44 c3          	cmove  %rbx,%rax
 199:	48 8b 4d e8          	mov    -0x18(%rbp),%rcx
 19d:	65 48 33 0c 25 28 00 	xor    %gs:0x28,%rcx
 1a4:	00 00 

static __always_inline unsigned long __must_check
copy_to_user(void __user *to, const void *from, unsigned long n)
{
	if (likely(check_copy_size(from, n, true)))
		n = _copy_to_user(to, from, n);
 1a6:	75 09                	jne    1b1 <faulty_read+0xa1>
 1a8:	48 83 c4 10          	add    $0x10,%rsp
 1ac:	5b                   	pop    %rbx
 1ad:	41 5c                	pop    %r12
		*(stack_buf + i) = 0xff;
    */
	if (count > 4)
		count = 4; /* copy 4 bytes to the user */
	ret = copy_to_user(buf, stack_buf, count);
	printk(KERN_INFO "faulty_read  the return value copy_to_user : %d   \n", ret );
 1af:	5d                   	pop    %rbp
 1b0:	c3                   	retq   
 1b1:	e8 00 00 00 00       	callq  1b6 <faulty_read+0xa6>
 1b6:	66 2e 0f 1f 84 00 00 	nopw   %cs:0x0(%rax,%rax,1)
 1bd:	00 00 00 

00000000000001c0 <faulty_init>:
	if (!ret)
		return count;
 1c0:	e8 00 00 00 00       	callq  1c5 <faulty_init+0x5>
 1c5:	55                   	push   %rbp
 1c6:	48 c7 c7 00 00 00 00 	mov    $0x0,%rdi
	return ret;
}
 1cd:	48 89 e5             	mov    %rsp,%rbp
 1d0:	53                   	push   %rbx
 1d1:	e8 00 00 00 00       	callq  1d6 <faulty_init+0x16>
 1d6:	8b 3d 00 00 00 00    	mov    0x0(%rip),%edi        # 1dc <faulty_init+0x1c>
 1dc:	31 f6                	xor    %esi,%esi
 1de:	49 c7 c0 00 00 00 00 	mov    $0x0,%r8
 1e5:	48 c7 c1 00 00 00 00 	mov    $0x0,%rcx
 1ec:	ba 00 01 00 00       	mov    $0x100,%edx
	.owner = THIS_MODULE
};


int faulty_init(void)
{
 1f1:	e8 00 00 00 00       	callq  1f6 <faulty_init+0x36>
	int result;

	printk(KERN_INFO "faulty_init  \n" );
 1f6:	85 c0                	test   %eax,%eax
 1f8:	89 c3                	mov    %eax,%ebx
 1fa:	78 4e                	js     24a <faulty_init+0x8a>
 1fc:	8b 05 00 00 00 00    	mov    0x0(%rip),%eax        # 202 <faulty_init+0x42>
 202:	85 c0                	test   %eax,%eax
 204:	74 49                	je     24f <faulty_init+0x8f>
extern void chrdev_show(struct seq_file *,off_t);

static inline int register_chrdev(unsigned int major, const char *name,
				  const struct file_operations *fops)
{
	return __register_chrdev(major, 0, 256, name, fops);
 206:	48 c7 c2 00 00 00 00 	mov    $0x0,%rdx
 20d:	48 c7 c6 00 00 00 00 	mov    $0x0,%rsi
 214:	48 c7 c7 00 00 00 00 	mov    $0x0,%rdi
 21b:	e8 00 00 00 00       	callq  220 <faulty_init+0x60>
 220:	31 db                	xor    %ebx,%ebx
 222:	48 85 c0             	test   %rax,%rax
 225:	48 89 05 00 00 00 00 	mov    %rax,0x0(%rip)        # 22c <faulty_init+0x6c>
	 * Register your major, and accept a dynamic number
	 */
	result = register_chrdev(faulty_major, "faulty", &faulty_fops);
	if (result < 0)
		return result;
	if (faulty_major == 0)
 22c:	74 1c                	je     24a <faulty_init+0x8a>
 22e:	8b 15 00 00 00 00    	mov    0x0(%rip),%edx        # 234 <faulty_init+0x74>
 234:	49 c7 c0 00 00 00 00 	mov    $0x0,%r8
		faulty_major = result; /* dynamic */

	faulty_class = class_create(THIS_MODULE, "faulty");
 23b:	31 c9                	xor    %ecx,%ecx
 23d:	31 f6                	xor    %esi,%esi
 23f:	48 89 c7             	mov    %rax,%rdi
 242:	c1 e2 14             	shl    $0x14,%edx
 245:	e8 00 00 00 00       	callq  24a <faulty_init+0x8a>
 24a:	89 d8                	mov    %ebx,%eax
 24c:	5b                   	pop    %rbx
 24d:	5d                   	pop    %rbp
 24e:	c3                   	retq   
 24f:	89 1d 00 00 00 00    	mov    %ebx,0x0(%rip)        # 255 <faulty_init+0x95>
 255:	eb af                	jmp    206 <faulty_init+0x46>
 257:	66 0f 1f 84 00 00 00 	nopw   0x0(%rax,%rax,1)
 25e:	00 00 

0000000000000260 <cleanup_module>:
	if(faulty_class)
		device_create(faulty_class, NULL, MKDEV(faulty_major, 0), NULL, "faulty");
 260:	e8 00 00 00 00       	callq  265 <cleanup_module+0x5>
 265:	55                   	push   %rbp
 266:	48 c7 c7 00 00 00 00 	mov    $0x0,%rdi
 26d:	48 89 e5             	mov    %rsp,%rbp
 270:	e8 00 00 00 00       	callq  275 <cleanup_module+0x15>
 275:	48 8b 3d 00 00 00 00 	mov    0x0(%rip),%rdi        # 27c <cleanup_module+0x1c>

	return 0;
}
 27c:	48 85 ff             	test   %rdi,%rdi
	 */
	result = register_chrdev(faulty_major, "faulty", &faulty_fops);
	if (result < 0)
		return result;
	if (faulty_major == 0)
		faulty_major = result; /* dynamic */
 27f:	74 1a                	je     29b <cleanup_module+0x3b>
 281:	8b 35 00 00 00 00    	mov    0x0(%rip),%esi        # 287 <cleanup_module+0x27>
 287:	c1 e6 14             	shl    $0x14,%esi
 28a:	e8 00 00 00 00       	callq  28f <cleanup_module+0x2f>
 28f:	48 8b 3d 00 00 00 00 	mov    0x0(%rip),%rdi        # 296 <cleanup_module+0x36>
	return 0;
}

void faulty_cleanup(void)
{
	printk(KERN_INFO "faulty_cleanup  \n" );
 296:	e8 00 00 00 00       	callq  29b <cleanup_module+0x3b>
 29b:	8b 3d 00 00 00 00    	mov    0x0(%rip),%edi        # 2a1 <cleanup_module+0x41>
 2a1:	48 c7 c1 00 00 00 00 	mov    $0x0,%rcx
	if(faulty_class)
 2a8:	ba 00 01 00 00       	mov    $0x100,%edx
 2ad:	31 f6                	xor    %esi,%esi
 2af:	e8 00 00 00 00       	callq  2b4 <cleanup_module+0x54>
	{
		device_destroy(faulty_class, MKDEV(faulty_major, 0));
 2b4:	5d                   	pop    %rbp
 2b5:	c3                   	retq   

Disassembly of section .modinfo:

0000000000000000 <__UNIQUE_ID_license24>:
   0:	6c                   	insb   (%dx),%es:(%rdi)
   1:	69 63 65 6e 73 65 3d 	imul   $0x3d65736e,0x65(%rbx),%esp
   8:	44 75 61             	rex.R jne 6c <__UNIQUE_ID_vermagic14+0xb>
   b:	6c                   	insb   (%dx),%es:(%rdi)
   c:	20 42 53             	and    %al,0x53(%rdx)
   f:	44 2f                	rex.R (bad) 
  11:	47 50                	rex.RXB push %r8
  13:	4c 00 00             	rex.WR add %r8b,(%rax)
	...

0000000000000018 <__UNIQUE_ID_srcversion17>:
  18:	73 72                	jae    8c <__UNIQUE_ID_vermagic14+0x2b>
  1a:	63 76 65             	movslq 0x65(%rsi),%esi
  1d:	72 73                	jb     92 <__UNIQUE_ID_vermagic14+0x31>
  1f:	69 6f 6e 3d 41 32 43 	imul   $0x4332413d,0x6e(%rdi),%ebp
  26:	38 41 32             	cmp    %al,0x32(%rcx)
  29:	32 44 30 31          	xor    0x31(%rax,%rsi,1),%al
  2d:	42                   	rex.X
  2e:	43 37                	rex.XB (bad) 
	return ret;
}

ssize_t faulty_write (struct file *filp, const char __user *buf, size_t count,
		loff_t *pos)
{
  30:	35 36 31 34 37       	xor    $0x37343136,%eax
  35:	42 39 30             	rex.X cmp %esi,(%rax)
    char *d;
    char *m1;
    char *m2;

	/* make a simple fault by dereferencing a NULL pointer */
	printk(KERN_INFO "faulty_write  \n" );
  38:	35 45 00 00 00       	xor    $0x45,%eax
	return ret;
}

ssize_t faulty_write (struct file *filp, const char __user *buf, size_t count,
		loff_t *pos)
{
  3d:	00 00                	add    %al,(%rax)
	...

0000000000000040 <__module_depends>:
  40:	64 65 70 65          	fs gs jo a9 <__UNIQUE_ID_vermagic14+0x48>
  44:	6e                   	outsb  %ds:(%rsi),(%dx)
  45:	64 73 3d             	fs jae 85 <__UNIQUE_ID_vermagic14+0x24>
	...

0000000000000049 <__UNIQUE_ID_retpoline16>:
  49:	72 65                	jb     b0 <__UNIQUE_ID_vermagic14+0x4f>
    char *d;
    char *m1;
    char *m2;

	/* make a simple fault by dereferencing a NULL pointer */
	printk(KERN_INFO "faulty_write  \n" );
  4b:	74 70                	je     bd <__UNIQUE_ID_vermagic14+0x5c>
  4d:	6f                   	outsl  %ds:(%rsi),(%dx)
  4e:	6c                   	insb   (%dx),%es:(%rdi)
  4f:	69 6e 65 3d 59 00 6e 	imul   $0x6e00593d,0x65(%rsi),%ebp

0000000000000055 <__UNIQUE_ID_name15>:
  55:	6e                   	outsb  %ds:(%rsi),(%dx)
  56:	61                   	(bad)  
  57:	6d                   	insl   (%dx),%es:(%rdi)
  58:	65 3d 66 61 75 6c    	gs cmp $0x6c756166,%eax

    d = kmalloc( count , GFP_KERNEL );
	printk(KERN_INFO "faulty_write : allocated %d bytes  and   \n", count );
  5e:	74 79                	je     d9 <__UNIQUE_ID_vermagic14+0x78>
	...

0000000000000061 <__UNIQUE_ID_vermagic14>:
  61:	76 65                	jbe    c8 <__UNIQUE_ID_vermagic14+0x67>
  63:	72 6d                	jb     d2 <__UNIQUE_ID_vermagic14+0x71>
  65:	61                   	(bad)  
  66:	67 69 63 3d 34 2e 31 	imul   $0x35312e34,0x3d(%ebx),%esp
  6d:	35 
  6e:	2e 30 2d 35 32 2d 67 	xor    %ch,%cs:0x672d3235(%rip)        # 672d32aa <cleanup_module+0x672d304a>
  75:	65 6e                	outsb  %gs:(%rsi),(%dx)
  77:	65 72 69             	gs jb  e3 <__UNIQUE_ID_vermagic14+0x82>
  7a:	63 20                	movslq (%rax),%esp

static __always_inline unsigned long __must_check
copy_from_user(void *to, const void __user *from, unsigned long n)
{
	if (likely(check_copy_size(to, n, false)))
		n = _copy_from_user(to, from, n);
  7c:	53                   	push   %rbx
  7d:	4d 50                	rex.WRB push %r8
  7f:	20 6d 6f             	and    %ch,0x6f(%rbp)
  82:	64 5f                	fs pop %rdi
  84:	75 6e                	jne    f4 <__UNIQUE_ID_vermagic14+0x93>
  86:	6c                   	insb   (%dx),%es:(%rdi)
  87:	6f                   	outsl  %ds:(%rsi),(%dx)
  88:	61                   	(bad)  
  89:	64 20 00             	and    %al,%fs:(%rax)

Disassembly of section __mcount_loc:

0000000000000000 <__mcount_loc>:
	...
